target datalayout = "e-m:e-p270:32:32-p271:32:32-p272:64:64-i64:64-i128:128-f80:128-n8:16:32:64-S128"
target triple = "x86_64-pc-linux-gnu"

@stderr = external global ptr, align 8
@.str.6 = private unnamed_addr constant [4 x i8] c"%s\0A\00", align 1
@infile = internal global ptr null, align 8
@outfile = internal global ptr null, align 8
@.str.32 = private unnamed_addr constant [27 x i8] c"Premature EOF in JPEG file\00", align 1
@.str.33 = private unnamed_addr constant [29 x i8] c"Erroneous JPEG marker length\00", align 1

; Function Attrs: nounwind uwtable
define internal void @write_1_byte(i32 noundef %0) #0 {
  %2 = alloca i32, align 4
  store i32 %0, ptr %2, align 4, !tbaa !4
  %3 = load i32, ptr %2, align 4, !tbaa !4
  %4 = load ptr, ptr @outfile, align 8, !tbaa !13
  %5 = call i32 @putc(i32 noundef %3, ptr noundef %4)
  ret void
}

; Function Attrs: nounwind uwtable
define internal i32 @read_1_byte() #0 {
  %1 = alloca i32, align 4
  call void @llvm.lifetime.start.p0(i64 4, ptr %1) #10
  %2 = load ptr, ptr @infile, align 8, !tbaa !13
  %3 = call i32 @getc(ptr noundef %2)
  store i32 %3, ptr %1, align 4, !tbaa !4
  %4 = load i32, ptr %1, align 4, !tbaa !4
  %5 = icmp eq i32 %4, -1
  br i1 %5, label %6, label %9

6:                                                ; preds = %0
  %7 = load ptr, ptr @stderr, align 8, !tbaa !13
  %8 = call i32 (ptr, ptr, ...) @fprintf(ptr noundef %7, ptr noundef @.str.6, ptr noundef @.str.32) #10
  call void @exit(i32 noundef 1) #11
  unreachable

9:                                                ; preds = %0
  %10 = load i32, ptr %1, align 4, !tbaa !4
  call void @llvm.lifetime.end.p0(i64 4, ptr %1) #10
  ret i32 %10
}

; Function Attrs: nounwind uwtable
define internal void @write_2_bytes(i32 noundef %0) #0 {
  %2 = alloca i32, align 4
  store i32 %0, ptr %2, align 4, !tbaa !4
  %3 = load i32, ptr %2, align 4, !tbaa !4
  %4 = lshr i32 %3, 8
  %5 = and i32 %4, 255
  %6 = load ptr, ptr @outfile, align 8, !tbaa !13
  %7 = call i32 @putc(i32 noundef %5, ptr noundef %6)
  %8 = load i32, ptr %2, align 4, !tbaa !4
  %9 = and i32 %8, 255
  %10 = load ptr, ptr @outfile, align 8, !tbaa !13
  %11 = call i32 @putc(i32 noundef %9, ptr noundef %10)
  ret void
}

; Function Attrs: nounwind uwtable
define internal void @copy_variable() #0 {
  %1 = alloca i32, align 4
  call void @llvm.lifetime.start.p0(i64 4, ptr %1) #10
  %2 = call i32 @read_2_bytes()
  store i32 %2, ptr %1, align 4, !tbaa !4
  %3 = load i32, ptr %1, align 4, !tbaa !4
  call void @write_2_bytes(i32 noundef %3)
  %4 = load i32, ptr %1, align 4, !tbaa !4
  %5 = icmp ult i32 %4, 2
  br i1 %5, label %6, label %9

6:                                                ; preds = %0
  %7 = load ptr, ptr @stderr, align 8, !tbaa !13
  %8 = call i32 (ptr, ptr, ...) @fprintf(ptr noundef %7, ptr noundef @.str.6, ptr noundef @.str.33) #10
  call void @exit(i32 noundef 1) #11
  unreachable

9:                                                ; preds = %0
  %10 = load i32, ptr %1, align 4, !tbaa !4
  %11 = sub i32 %10, 2
  store i32 %11, ptr %1, align 4, !tbaa !4
  br label %12

12:                                               ; preds = %15, %9
  %13 = load i32, ptr %1, align 4, !tbaa !4
  %14 = icmp ugt i32 %13, 0
  br i1 %14, label %15, label %19

15:                                               ; preds = %12
  %16 = call i32 @read_1_byte()
  call void @write_1_byte(i32 noundef %16)
  %17 = load i32, ptr %1, align 4, !tbaa !4
  %18 = add i32 %17, -1
  store i32 %18, ptr %1, align 4, !tbaa !4
  br label %12, !llvm.loop !30

19:                                               ; preds = %12
  call void @llvm.lifetime.end.p0(i64 4, ptr %1) #10
  ret void
}