; Function Attrs: nofree nounwind uwtable
define internal fastcc void @copy_variable() unnamed_addr #7 {
  %1 = tail call fastcc i32 @read_2_bytes()
  %2 = lshr i32 %1, 8
  %3 = and i32 %2, 255
  %4 = load ptr, ptr @outfile, align 8, !tbaa !20
  %5 = tail call i32 @putc(i32 noundef %3, ptr noundef %4)
  %6 = and i32 %1, 255
  %7 = load ptr, ptr @outfile, align 8, !tbaa !20
  %8 = tail call i32 @putc(i32 noundef %6, ptr noundef %7)
  %9 = icmp ult i32 %1, 2
  br i1 %9, label %10, label %13

10:                                               ; preds = %0
  %11 = load ptr, ptr @stderr, align 8, !tbaa !20
  %12 = tail call i32 (ptr, ptr, ...) @fprintf(ptr noundef %11, ptr noundef nonnull @.str.6, ptr noundef nonnull @.str.33) #11
  tail call void @exit(i32 noundef 1) #12
  unreachable

13:                                               ; preds = %0
  %14 = add i32 %1, -2
  %.not6 = icmp eq i32 %14, 0
  br i1 %.not6, label %._crit_edge, label %.lr.ph

.lr.ph:                                           ; preds = %13, %read_1_byte.exit
  %.07 = phi i32 [ %23, %read_1_byte.exit ], [ %14, %13 ]
  %15 = load ptr, ptr @infile, align 8, !tbaa !20
  %16 = tail call i32 @getc(ptr noundef %15)
  %17 = icmp eq i32 %16, -1
  br i1 %17, label %18, label %read_1_byte.exit

18:                                               ; preds = %.lr.ph
  %19 = load ptr, ptr @stderr, align 8, !tbaa !20
  %20 = tail call i32 (ptr, ptr, ...) @fprintf(ptr noundef %19, ptr noundef nonnull @.str.6, ptr noundef nonnull @.str.32) #11
  tail call void @exit(i32 noundef 1) #12
  unreachable

read_1_byte.exit:                                 ; preds = %.lr.ph
  %21 = load ptr, ptr @outfile, align 8, !tbaa !20
  %22 = tail call i32 @putc(i32 noundef %16, ptr noundef %21)
  %23 = add i32 %.07, -1
  %.not = icmp eq i32 %23, 0
  br i1 %.not, label %._crit_edge, label %.lr.ph, !llvm.loop !28

._crit_edge:                                      ; preds = %read_1_byte.exit, %13
  ret void
}